target datalayout = "e-m:e-p270:32:32-p271:32:32-p272:64:64-i64:64-i128:128-f80:128-n8:16:32:64-S128"
target triple = "x86_64-pc-linux-gnu"

%struct.UriMemoryManagerStruct = type { ptr, ptr, ptr, ptr, ptr, ptr }
%struct.UriParserStateStructA = type { ptr, i32, ptr, ptr }
%struct.UriUriStructA = type { %struct.UriTextRangeStructA, %struct.UriTextRangeStructA, %struct.UriTextRangeStructA, %struct.UriHostDataStructA, %struct.UriTextRangeStructA, ptr, ptr, %struct.UriTextRangeStructA, %struct.UriTextRangeStructA, i32, i32, ptr }
%struct.UriHostDataStructA = type { ptr, ptr, %struct.UriTextRangeStructA }
%struct.UriTextRangeStructA = type { ptr, ptr }
%struct.UriPathSegmentStructA = type { %struct.UriTextRangeStructA, ptr, ptr }

@uriSafeToPointToA = external constant ptr, align 8

; Function Attrs: inlinehint nounwind uwtable
define internal i32 @uriPushPathSegmentA(ptr noundef %0, ptr noundef %1, ptr noundef %2, ptr noundef %3) #4 {
  %5 = alloca i32, align 4
  %6 = alloca ptr, align 8
  %7 = alloca ptr, align 8
  %8 = alloca ptr, align 8
  %9 = alloca ptr, align 8
  %10 = alloca ptr, align 8
  %11 = alloca i32, align 4
  store ptr %0, ptr %6, align 8, !tbaa !3
  store ptr %1, ptr %7, align 8, !tbaa !8
  store ptr %2, ptr %8, align 8, !tbaa !8
  store ptr %3, ptr %9, align 8, !tbaa !10
  call void @llvm.lifetime.start.p0(i64 8, ptr %10) #7
  %12 = load ptr, ptr %9, align 8, !tbaa !10
  %13 = getelementptr inbounds nuw %struct.UriMemoryManagerStruct, ptr %12, i32 0, i32 1
  %14 = load ptr, ptr %13, align 8, !tbaa !101
  %15 = load ptr, ptr %9, align 8, !tbaa !10
  %16 = call ptr %14(ptr noundef %15, i64 noundef 1, i64 noundef 32)
  store ptr %16, ptr %10, align 8, !tbaa !44
  %17 = load ptr, ptr %10, align 8, !tbaa !44
  %18 = icmp eq ptr %17, null
  br i1 %18, label %19, label %20

19:                                               ; preds = %4
  store i32 0, ptr %5, align 4
  store i32 1, ptr %11, align 4
  br label %74

20:                                               ; preds = %4
  %21 = load ptr, ptr %7, align 8, !tbaa !8
  %22 = load ptr, ptr %8, align 8, !tbaa !8
  %23 = icmp eq ptr %21, %22
  br i1 %23, label %24, label %33

24:                                               ; preds = %20
  %25 = load ptr, ptr @uriSafeToPointToA, align 8, !tbaa !8
  %26 = load ptr, ptr %10, align 8, !tbaa !44
  %27 = getelementptr inbounds nuw %struct.UriPathSegmentStructA, ptr %26, i32 0, i32 0
  %28 = getelementptr inbounds nuw %struct.UriTextRangeStructA, ptr %27, i32 0, i32 0
  store ptr %25, ptr %28, align 8, !tbaa !47
  %29 = load ptr, ptr @uriSafeToPointToA, align 8, !tbaa !8
  %30 = load ptr, ptr %10, align 8, !tbaa !44
  %31 = getelementptr inbounds nuw %struct.UriPathSegmentStructA, ptr %30, i32 0, i32 0
  %32 = getelementptr inbounds nuw %struct.UriTextRangeStructA, ptr %31, i32 0, i32 1
  store ptr %29, ptr %32, align 8, !tbaa !48
  br label %42

33:                                               ; preds = %20
  %34 = load ptr, ptr %7, align 8, !tbaa !8
  %35 = load ptr, ptr %10, align 8, !tbaa !44
  %36 = getelementptr inbounds nuw %struct.UriPathSegmentStructA, ptr %35, i32 0, i32 0
  %37 = getelementptr inbounds nuw %struct.UriTextRangeStructA, ptr %36, i32 0, i32 0
  store ptr %34, ptr %37, align 8, !tbaa !47
  %38 = load ptr, ptr %8, align 8, !tbaa !8
  %39 = load ptr, ptr %10, align 8, !tbaa !44
  %40 = getelementptr inbounds nuw %struct.UriPathSegmentStructA, ptr %39, i32 0, i32 0
  %41 = getelementptr inbounds nuw %struct.UriTextRangeStructA, ptr %40, i32 0, i32 1
  store ptr %38, ptr %41, align 8, !tbaa !48
  br label %42

42:                                               ; preds = %33, %24
  %43 = load ptr, ptr %6, align 8, !tbaa !3
  %44 = getelementptr inbounds nuw %struct.UriParserStateStructA, ptr %43, i32 0, i32 0
  %45 = load ptr, ptr %44, align 8, !tbaa !12
  %46 = getelementptr inbounds nuw %struct.UriUriStructA, ptr %45, i32 0, i32 5
  %47 = load ptr, ptr %46, align 8, !tbaa !43
  %48 = icmp eq ptr %47, null
  br i1 %48, label %49, label %60

49:                                               ; preds = %42
  %50 = load ptr, ptr %10, align 8, !tbaa !44
  %51 = load ptr, ptr %6, align 8, !tbaa !3
  %52 = getelementptr inbounds nuw %struct.UriParserStateStructA, ptr %51, i32 0, i32 0
  %53 = load ptr, ptr %52, align 8, !tbaa !12
  %54 = getelementptr inbounds nuw %struct.UriUriStructA, ptr %53, i32 0, i32 5
  store ptr %50, ptr %54, align 8, !tbaa !43
  %55 = load ptr, ptr %10, align 8, !tbaa !44
  %56 = load ptr, ptr %6, align 8, !tbaa !3
  %57 = getelementptr inbounds nuw %struct.UriParserStateStructA, ptr %56, i32 0, i32 0
  %58 = load ptr, ptr %57, align 8, !tbaa !12
  %59 = getelementptr inbounds nuw %struct.UriUriStructA, ptr %58, i32 0, i32 6
  store ptr %55, ptr %59, align 8, !tbaa !51
  br label %73

60:                                               ; preds = %42
  %61 = load ptr, ptr %10, align 8, !tbaa !44
  %62 = load ptr, ptr %6, align 8, !tbaa !3
  %63 = getelementptr inbounds nuw %struct.UriParserStateStructA, ptr %62, i32 0, i32 0
  %64 = load ptr, ptr %63, align 8, !tbaa !12
  %65 = getelementptr inbounds nuw %struct.UriUriStructA, ptr %64, i32 0, i32 6
  %66 = load ptr, ptr %65, align 8, !tbaa !51
  %67 = getelementptr inbounds nuw %struct.UriPathSegmentStructA, ptr %66, i32 0, i32 1
  store ptr %61, ptr %67, align 8, !tbaa !45
  %68 = load ptr, ptr %10, align 8, !tbaa !44
  %69 = load ptr, ptr %6, align 8, !tbaa !3
  %70 = getelementptr inbounds nuw %struct.UriParserStateStructA, ptr %69, i32 0, i32 0
  %71 = load ptr, ptr %70, align 8, !tbaa !12
  %72 = getelementptr inbounds nuw %struct.UriUriStructA, ptr %71, i32 0, i32 6
  store ptr %68, ptr %72, align 8, !tbaa !51
  br label %73

73:                                               ; preds = %60, %49
  store i32 1, ptr %5, align 4
  store i32 1, ptr %11, align 4
  br label %74

74:                                               ; preds = %73, %19
  call void @llvm.lifetime.end.p0(i64 8, ptr %10) #7
  %75 = load i32, ptr %5, align 4
  ret i32 %75
}