; Function Attrs: inlinehint nounwind uwtable
define internal fastcc range(i32 0, 2) i32 @uriPushPathSegmentA(ptr noundef nonnull readonly captures(none) %0, ptr noundef %1, ptr noundef nonnull %2, ptr noundef %3) unnamed_addr #4 {
  %5 = getelementptr inbounds nuw i8, ptr %3, i64 8
  %6 = load ptr, ptr %5, align 8, !tbaa !19
  %7 = tail call ptr %6(ptr noundef %3, i64 noundef 1, i64 noundef 32) #7
  %8 = icmp eq ptr %7, null
  br i1 %8, label %23, label %9

9:                                                ; preds = %4
  %10 = icmp eq ptr %1, %2
  %11 = load ptr, ptr @uriSafeToPointToA, align 8
  %spec.select = select i1 %10, ptr %11, ptr %1
  %spec.select24 = select i1 %10, ptr %11, ptr %2
  store ptr %spec.select, ptr %7, align 8, !tbaa !21
  %12 = getelementptr inbounds nuw i8, ptr %7, i64 8
  store ptr %spec.select24, ptr %12, align 8, !tbaa !23
  %13 = load ptr, ptr %0, align 8, !tbaa !3
  %14 = getelementptr inbounds nuw i8, ptr %13, i64 96
  %15 = load ptr, ptr %14, align 8, !tbaa !24
  %16 = icmp eq ptr %15, null
  br i1 %16, label %17, label %19

17:                                               ; preds = %9
  store ptr %7, ptr %14, align 8, !tbaa !24
  %18 = getelementptr inbounds nuw i8, ptr %13, i64 104
  store ptr %7, ptr %18, align 8, !tbaa !25
  br label %23

19:                                               ; preds = %9
  %20 = getelementptr inbounds nuw i8, ptr %13, i64 104
  %21 = load ptr, ptr %20, align 8, !tbaa !25
  %22 = getelementptr inbounds nuw i8, ptr %21, i64 16
  store ptr %7, ptr %22, align 8, !tbaa !26
  store ptr %7, ptr %20, align 8, !tbaa !25
  br label %23

23:                                               ; preds = %17, %19, %4
  %.0 = phi i32 [ 0, %4 ], [ 1, %19 ], [ 1, %17 ]
  ret i32 %.0
}